target datalayout = "e-m:e-p270:32:32-p271:32:32-p272:64:64-i64:64-i128:128-f80:128-n8:16:32:64-S128"
target triple = "x86_64-pc-linux-gnu"

%struct.expert_field = type { i32, i32 }

@ei_gtpv2_ie_len_invalid = internal global %struct.expert_field zeroinitializer, align 4
@hf_gtpv2_spare_bits = internal global i32 0, align 4
@hf_gtpv2_ebi = internal global i32 0, align 4
@hf_gtpv2_hsgw_addr_f_len = internal global i32 0, align 4
@hf_gtpv2_hsgw_addr_ipv4 = internal global i32 0, align 4
@hf_gtpv2_hsgw_addr_ipv6 = internal global i32 0, align 4
@hf_gtpv2_gre_key = internal global i32 0, align 4
@hf_gtpv2_eps_bearer_id_number = internal global i32 0, align 4
@.str.1802 = private unnamed_addr constant [35 x i8] c"Wrong length %u, should be 4 or 16\00", align 1

; Function Attrs: null_pointer_is_valid sspstrong uwtable
define internal void @dissect_gtpv2_s103pdf(ptr noundef %0, ptr noundef %1, ptr noundef %2, ptr noundef %3, i16 noundef zeroext %4, i8 noundef zeroext %5, i8 noundef zeroext %6, ptr noundef %7) #1 {
  %9 = alloca ptr, align 8
  %10 = alloca ptr, align 8
  %11 = alloca ptr, align 8
  %12 = alloca ptr, align 8
  %13 = alloca i16, align 2
  %14 = alloca i8, align 1
  %15 = alloca i8, align 1
  %16 = alloca ptr, align 8
  %17 = alloca i32, align 4
  %18 = alloca i8, align 1
  %19 = alloca i8, align 1
  %20 = alloca i8, align 1
  %21 = alloca i32, align 4
  store ptr %0, ptr %9, align 8
  store ptr %1, ptr %10, align 8
  store ptr %2, ptr %11, align 8
  store ptr %3, ptr %12, align 8
  store i16 %4, ptr %13, align 2
  store i8 %5, ptr %14, align 1
  store i8 %6, ptr %15, align 1
  store ptr %7, ptr %16, align 8
  call void @llvm.lifetime.start.p0(i64 4, ptr %17) #11
  store i32 0, ptr %17, align 4
  call void @llvm.lifetime.start.p0(i64 1, ptr %18) #11
  call void @llvm.lifetime.start.p0(i64 1, ptr %19) #11
  call void @llvm.lifetime.start.p0(i64 1, ptr %20) #11
  %22 = load ptr, ptr %9, align 8
  %23 = load i32, ptr %17, align 4
  %24 = call zeroext i8 @tvb_get_uint8(ptr noundef %22, i32 noundef %23)
  store i8 %24, ptr %18, align 1
  %25 = load ptr, ptr %11, align 8
  %26 = load i32, ptr @hf_gtpv2_hsgw_addr_f_len, align 4
  %27 = load ptr, ptr %9, align 8
  %28 = load i32, ptr %17, align 4
  %29 = call ptr @proto_tree_add_item(ptr noundef %25, i32 noundef %26, ptr noundef %27, i32 noundef %28, i32 noundef 1, i32 noundef 0)
  %30 = load i32, ptr %17, align 4
  %31 = add i32 %30, 1
  store i32 %31, ptr %17, align 4
  %32 = load i8, ptr %18, align 1
  %33 = zext i8 %32 to i32
  switch i32 %33, label %54 [
    i32 4, label %34
    i32 16, label %44
  ]

34:                                               ; preds = %8
  %35 = load ptr, ptr %11, align 8
  %36 = load i32, ptr @hf_gtpv2_hsgw_addr_ipv4, align 4
  %37 = load ptr, ptr %9, align 8
  %38 = load i32, ptr %17, align 4
  %39 = load i8, ptr %18, align 1
  %40 = zext i8 %39 to i32
  %41 = call ptr @proto_tree_add_item(ptr noundef %35, i32 noundef %36, ptr noundef %37, i32 noundef %38, i32 noundef %40, i32 noundef 0)
  %42 = load i32, ptr %17, align 4
  %43 = add i32 %42, 4
  store i32 %43, ptr %17, align 4
  br label %63

44:                                               ; preds = %8
  %45 = load ptr, ptr %11, align 8
  %46 = load i32, ptr @hf_gtpv2_hsgw_addr_ipv6, align 4
  %47 = load ptr, ptr %9, align 8
  %48 = load i32, ptr %17, align 4
  %49 = load i8, ptr %18, align 1
  %50 = zext i8 %49 to i32
  %51 = call ptr @proto_tree_add_item(ptr noundef %45, i32 noundef %46, ptr noundef %47, i32 noundef %48, i32 noundef %50, i32 noundef 0)
  %52 = load i32, ptr %17, align 4
  %53 = add i32 %52, 16
  store i32 %53, ptr %17, align 4
  br label %63

54:                                               ; preds = %8
  %55 = load ptr, ptr %11, align 8
  %56 = load ptr, ptr %10, align 8
  %57 = load ptr, ptr %9, align 8
  %58 = load i16, ptr %13, align 2
  %59 = zext i16 %58 to i32
  %60 = load i8, ptr %18, align 1
  %61 = zext i8 %60 to i32
  %62 = call ptr (ptr, ptr, ptr, ptr, i32, i32, ptr, ...) @proto_tree_add_expert_format(ptr noundef %55, ptr noundef %56, ptr noundef @ei_gtpv2_ie_len_invalid, ptr noundef %57, i32 noundef 0, i32 noundef %59, ptr noundef @.str.1802, i32 noundef %61)
  store i32 1, ptr %21, align 4
  br label %105

63:                                               ; preds = %44, %34
  %64 = load ptr, ptr %11, align 8
  %65 = load i32, ptr @hf_gtpv2_gre_key, align 4
  %66 = load ptr, ptr %9, align 8
  %67 = load i32, ptr %17, align 4
  %68 = call ptr @proto_tree_add_item(ptr noundef %64, i32 noundef %65, ptr noundef %66, i32 noundef %67, i32 noundef 4, i32 noundef 0)
  %69 = load i32, ptr %17, align 4
  %70 = add i32 %69, 4
  store i32 %70, ptr %17, align 4
  %71 = load ptr, ptr %9, align 8
  %72 = load i32, ptr %17, align 4
  %73 = call zeroext i8 @tvb_get_uint8(ptr noundef %71, i32 noundef %72)
  store i8 %73, ptr %19, align 1
  %74 = load ptr, ptr %11, align 8
  %75 = load i32, ptr @hf_gtpv2_eps_bearer_id_number, align 4
  %76 = load ptr, ptr %9, align 8
  %77 = load i32, ptr %17, align 4
  %78 = call ptr @proto_tree_add_item(ptr noundef %74, i32 noundef %75, ptr noundef %76, i32 noundef %77, i32 noundef 1, i32 noundef 0)
  %79 = load i32, ptr %17, align 4
  %80 = add i32 %79, 1
  store i32 %80, ptr %17, align 4
  store i8 0, ptr %20, align 1
  br label %81

81:                                               ; preds = %101, %63
  %82 = load i8, ptr %20, align 1
  %83 = zext i8 %82 to i32
  %84 = load i8, ptr %19, align 1
  %85 = zext i8 %84 to i32
  %86 = icmp slt i32 %83, %85
  br i1 %86, label %87, label %104

87:                                               ; preds = %81
  %88 = load ptr, ptr %11, align 8
  %89 = load i32, ptr @hf_gtpv2_spare_bits, align 4
  %90 = load ptr, ptr %9, align 8
  %91 = load i32, ptr %17, align 4
  %92 = shl i32 %91, 3
  %93 = call ptr @proto_tree_add_bits_item(ptr noundef %88, i32 noundef %89, ptr noundef %90, i32 noundef %92, i32 noundef 4, i32 noundef 0)
  %94 = load ptr, ptr %11, align 8
  %95 = load i32, ptr @hf_gtpv2_ebi, align 4
  %96 = load ptr, ptr %9, align 8
  %97 = load i32, ptr %17, align 4
  %98 = call ptr @proto_tree_add_item(ptr noundef %94, i32 noundef %95, ptr noundef %96, i32 noundef %97, i32 noundef 1, i32 noundef 0)
  %99 = load i32, ptr %17, align 4
  %100 = add i32 %99, 1
  store i32 %100, ptr %17, align 4
  br label %101

101:                                              ; preds = %87
  %102 = load i8, ptr %20, align 1
  %103 = add i8 %102, 1
  store i8 %103, ptr %20, align 1
  br label %81, !llvm.loop !23

104:                                              ; preds = %81
  store i32 0, ptr %21, align 4
  br label %105

105:                                              ; preds = %104, %54
  call void @llvm.lifetime.end.p0(i64 1, ptr %20) #11
  call void @llvm.lifetime.end.p0(i64 1, ptr %19) #11
  call void @llvm.lifetime.end.p0(i64 1, ptr %18) #11
  call void @llvm.lifetime.end.p0(i64 4, ptr %17) #11
  %106 = load i32, ptr %21, align 4
  switch i32 %106, label %108 [
    i32 0, label %107
    i32 1, label %107
  ]

107:                                              ; preds = %105, %105
  ret void

108:                                              ; preds = %105
  unreachable
}