; Function Attrs: null_pointer_is_valid sspstrong uwtable
define internal void @dissect_gtpv2_s103pdf(ptr noundef %0, ptr noundef %1, ptr noundef %2, ptr readnone captures(none) %3, i16 noundef zeroext %4, i8 zeroext %5, i8 zeroext %6, ptr readnone captures(none) %7) #1 {
  %9 = tail call zeroext i8 @tvb_get_uint8(ptr noundef %0, i32 noundef 0)
  %10 = load i32, ptr @hf_gtpv2_hsgw_addr_f_len, align 4
  %11 = tail call ptr @proto_tree_add_item(ptr noundef %2, i32 noundef %10, ptr noundef %0, i32 noundef 0, i32 noundef 1, i32 noundef 0)
  switch i8 %9, label %13 [
    i8 4, label %17
    i8 16, label %12
  ]

12:                                               ; preds = %8
  br label %17

13:                                               ; preds = %8
  %14 = zext i8 %9 to i32
  %15 = zext i16 %4 to i32
  %16 = tail call ptr (ptr, ptr, ptr, ptr, i32, i32, ptr, ...) @proto_tree_add_expert_format(ptr noundef %2, ptr noundef %1, ptr noundef nonnull @ei_gtpv2_ie_len_invalid, ptr noundef %0, i32 noundef 0, i32 noundef %15, ptr noundef nonnull @.str.1802, i32 noundef %14)
  br label %.loopexit

17:                                               ; preds = %8, %12
  %hf_gtpv2_hsgw_addr_ipv6.sink = phi ptr [ @hf_gtpv2_hsgw_addr_ipv6, %12 ], [ @hf_gtpv2_hsgw_addr_ipv4, %8 ]
  %.sink46 = phi i32 [ 16, %12 ], [ 4, %8 ]
  %.041 = phi i32 [ 17, %12 ], [ 5, %8 ]
  %18 = load i32, ptr %hf_gtpv2_hsgw_addr_ipv6.sink, align 4
  %19 = tail call ptr @proto_tree_add_item(ptr noundef %2, i32 noundef %18, ptr noundef %0, i32 noundef 1, i32 noundef %.sink46, i32 noundef 0)
  %20 = load i32, ptr @hf_gtpv2_gre_key, align 4
  %21 = tail call ptr @proto_tree_add_item(ptr noundef %2, i32 noundef %20, ptr noundef %0, i32 noundef %.041, i32 noundef 4, i32 noundef 0)
  %22 = add nuw nsw i32 %.041, 4
  %23 = tail call zeroext i8 @tvb_get_uint8(ptr noundef %0, i32 noundef %22)
  %24 = load i32, ptr @hf_gtpv2_eps_bearer_id_number, align 4
  %25 = tail call ptr @proto_tree_add_item(ptr noundef %2, i32 noundef %24, ptr noundef %0, i32 noundef %22, i32 noundef 1, i32 noundef 0)
  %.not = icmp eq i8 %23, 0
  br i1 %.not, label %.loopexit, label %.lr.ph.preheader

.lr.ph.preheader:                                 ; preds = %17
  %26 = add nuw nsw i32 %.041, 5
  %27 = trunc nuw nsw i32 %.041 to i8
  %28 = add i8 %23, %27
  %29 = add i8 %28, 5
  br label %.lr.ph

.lr.ph:                                           ; preds = %.lr.ph.preheader, %.lr.ph
  %.144 = phi i32 [ %35, %.lr.ph ], [ %26, %.lr.ph.preheader ]
  %30 = load i32, ptr @hf_gtpv2_spare_bits, align 4
  %31 = shl i32 %.144, 3
  %32 = tail call ptr @proto_tree_add_bits_item(ptr noundef %2, i32 noundef %30, ptr noundef %0, i32 noundef %31, i32 noundef 4, i32 noundef 0)
  %33 = load i32, ptr @hf_gtpv2_ebi, align 4
  %34 = tail call ptr @proto_tree_add_item(ptr noundef %2, i32 noundef %33, ptr noundef %0, i32 noundef %.144, i32 noundef 1, i32 noundef 0)
  %35 = add nuw nsw i32 %.144, 1
  %lftr.wideiv = trunc i32 %35 to i8
  %exitcond.not = icmp eq i8 %29, %lftr.wideiv
  br i1 %exitcond.not, label %.loopexit, label %.lr.ph, !llvm.loop !23

.loopexit:                                        ; preds = %.lr.ph, %17, %13
  ret void
}